target datalayout = "e-m:e-p270:32:32-p271:32:32-p272:64:64-i64:64-i128:128-f80:128-n8:16:32:64-S128"
target triple = "x86_64-pc-linux-gnu"

; Function Attrs: mustprogress nounwind uwtable
define internal noundef i32 @_ZL8sort_depPP12ciBaseObjectS1_i(ptr noundef %0, ptr noundef %1, i32 noundef %2) #1 {
  %4 = alloca i32, align 4
  %5 = alloca ptr, align 8
  %6 = alloca ptr, align 8
  %7 = alloca i32, align 4
  %8 = alloca i32, align 4
  %9 = alloca i32, align 4
  store ptr %0, ptr %5, align 8
  store ptr %1, ptr %6, align 8
  store i32 %2, ptr %7, align 4
  store i32 0, ptr %8, align 4
  br label %10

10:                                               ; preds = %33, %3
  %11 = load i32, ptr %8, align 4
  %12 = load i32, ptr %7, align 4
  %13 = icmp slt i32 %11, %12
  br i1 %13, label %14, label %36

14:                                               ; preds = %10
  %15 = load ptr, ptr %5, align 8
  %16 = load i32, ptr %8, align 4
  %17 = sext i32 %16 to i64
  %18 = getelementptr inbounds ptr, ptr %15, i64 %17
  %19 = load ptr, ptr %18, align 8
  %20 = call noundef i32 @_ZN12ciBaseObject5identEv(ptr noundef nonnull align 8 dereferenceable(12) %19)
  %21 = load ptr, ptr %6, align 8
  %22 = load i32, ptr %8, align 4
  %23 = sext i32 %22 to i64
  %24 = getelementptr inbounds ptr, ptr %21, i64 %23
  %25 = load ptr, ptr %24, align 8
  %26 = call noundef i32 @_ZN12ciBaseObject5identEv(ptr noundef nonnull align 8 dereferenceable(12) %25)
  %27 = sub i32 %20, %26
  store i32 %27, ptr %9, align 4
  %28 = load i32, ptr %9, align 4
  %29 = icmp ne i32 %28, 0
  br i1 %29, label %30, label %32

30:                                               ; preds = %14
  %31 = load i32, ptr %9, align 4
  store i32 %31, ptr %4, align 4
  br label %37

32:                                               ; preds = %14
  br label %33

33:                                               ; preds = %32
  %34 = load i32, ptr %8, align 4
  %35 = add nsw i32 %34, 1
  store i32 %35, ptr %8, align 4
  br label %10, !llvm.loop !56

36:                                               ; preds = %10
  store i32 0, ptr %4, align 4
  br label %37

37:                                               ; preds = %36, %30
  %38 = load i32, ptr %4, align 4
  ret i32 %38
}

; Function Attrs: mustprogress nounwind uwtable
define internal noundef i32 @_ZL14sort_dep_arg_2PP12ciBaseObjectS1_(ptr noundef %0, ptr noundef %1) #1 {
  %3 = alloca ptr, align 8
  %4 = alloca ptr, align 8
  store ptr %0, ptr %3, align 8
  store ptr %1, ptr %4, align 8
  %5 = load ptr, ptr %3, align 8
  %6 = load ptr, ptr %4, align 8
  %7 = call noundef i32 @_ZL8sort_depPP12ciBaseObjectS1_i(ptr noundef %5, ptr noundef %6, i32 noundef 2)
  ret i32 %7
}